; Function Attrs: mustprogress uwtable
define dso_local { i64, ptr } @_ZNK4absl6ByChar4FindESt17basic_string_viewIcSt11char_traitsIcEEm(ptr noundef nonnull readonly align 1 captures(none) dereferenceable(1) %0, i64 %1, ptr %2, i64 noundef %3) local_unnamed_addr #0 align 2 personality ptr @__gxx_personality_v0 {
  %5 = icmp ult i64 %3, %1
  br i1 %5, label %_ZNSt11char_traitsIcE4findEPKcmRS1_.exit.i, label %_ZNKSt17basic_string_viewIcSt11char_traitsIcEE4findEcm.exit.thread

_ZNSt11char_traitsIcE4findEPKcmRS1_.exit.i:       ; preds = %4
  %6 = load i8, ptr %0, align 1, !tbaa !19
  %7 = sub nuw i64 %1, %3
  %8 = getelementptr inbounds nuw i8, ptr %2, i64 %3
  %9 = sext i8 %6 to i32
  %10 = tail call ptr @memchr(ptr noundef %8, i32 noundef %9, i64 noundef %7) #11
  %.not.i = icmp eq ptr %10, null
  %11 = ptrtoint ptr %10 to i64
  %12 = ptrtoint ptr %2 to i64
  %13 = sub i64 %11, %12
  %14 = icmp eq i64 %13, -1
  %or.cond = select i1 %.not.i, i1 true, i1 %14
  br i1 %or.cond, label %_ZNKSt17basic_string_viewIcSt11char_traitsIcEE4findEcm.exit.thread, label %15

15:                                               ; preds = %_ZNSt11char_traitsIcE4findEPKcmRS1_.exit.i
  %16 = icmp ugt i64 %13, %1
  br i1 %16, label %17, label %_ZNKSt17basic_string_viewIcSt11char_traitsIcEE6substrEmm.exit

17:                                               ; preds = %15
  tail call void (ptr, ...) @_ZSt24__throw_out_of_range_fmtPKcz(ptr noundef nonnull @.str.6, ptr noundef nonnull @.str.5, i64 noundef %13, i64 noundef %1) #10
  unreachable

_ZNKSt17basic_string_viewIcSt11char_traitsIcEE6substrEmm.exit: ; preds = %15
  %18 = icmp ne i64 %1, %13
  %.sroa.speculated.i = zext i1 %18 to i64
  br label %_ZNKSt17basic_string_viewIcSt11char_traitsIcEE4findEcm.exit.thread

_ZNKSt17basic_string_viewIcSt11char_traitsIcEE4findEcm.exit.thread: ; preds = %4, %_ZNSt11char_traitsIcE4findEPKcmRS1_.exit.i, %_ZNKSt17basic_string_viewIcSt11char_traitsIcEE6substrEmm.exit
  %.sroa.07.0 = phi i64 [ %.sroa.speculated.i, %_ZNKSt17basic_string_viewIcSt11char_traitsIcEE6substrEmm.exit ], [ 0, %_ZNSt11char_traitsIcE4findEPKcmRS1_.exit.i ], [ 0, %4 ]
  %.pn = phi i64 [ %13, %_ZNKSt17basic_string_viewIcSt11char_traitsIcEE6substrEmm.exit ], [ %1, %_ZNSt11char_traitsIcE4findEPKcmRS1_.exit.i ], [ %1, %4 ]
  %.sroa.3.0 = getelementptr inbounds nuw i8, ptr %2, i64 %.pn
  %.fca.0.insert = insertvalue { i64, ptr } poison, i64 %.sroa.07.0, 0
  %.fca.1.insert = insertvalue { i64, ptr } %.fca.0.insert, ptr %.sroa.3.0, 1
  ret { i64, ptr } %.fca.1.insert
}